Certificate:
    Data:
        Version: 3 (0x2)
        Serial Number:
            13:3c:3d:ed:ba:22:e9:9e:7f:31:28:85:bf:82:db:61
        Signature Algorithm: sha256WithRSAEncryption
        Issuer: CN=server
        Validity
            Not Before: Jul 30 02:33:58 2024 GMT
            Not After : Nov  2 02:33:58 2026 GMT
        Subject: CN=client
        Subject Public Key Info:
            Public Key Algorithm: rsaEncryption
                Public-Key: (2048 bit)
                Modulus:
                    00:89:e9:1b:1d:90:5a:95:25:6c:85:44:9d:96:ac:
                    d1:51:4f:04:5f:24:80:25:53:ac:ba:e8:77:ac:24:
                    30:51:c1:21:bd:83:f0:c3:d5:f4:04:0d:5e:99:7f:
                    cc:c5:b2:39:20:72:5d:72:7f:14:53:1c:c7:e9:e4:
                    6e:b5:49:ba:44:b2:14:a7:a1:f6:d9:ce:b0:5f:32:
                    e8:a8:60:ce:a5:dc:9c:9a:e8:84:b3:eb:e8:b7:33:
                    b1:1e:cf:98:c5:f9:d5:72:67:ad:18:fc:3c:69:cc:
                    7a:bf:72:71:94:57:8f:8f:01:13:ca:70:4d:e3:03:
                    ff:ff:f8:ed:cd:68:82:e9:f0:9b:25:d5:5e:0d:81:
                    cb:03:42:39:75:bc:78:21:81:2b:26:7b:9a:7b:01:
                    8f:b5:8d:24:ef:2d:8e:6d:92:c8:5c:a0:8d:a6:66:
                    1c:90:fb:f7:21:c6:df:c4:42:fa:78:8b:10:0e:4b:
                    a4:44:63:fa:f3:43:64:f7:10:8c:8b:18:84:1b:5f:
                    83:a6:71:94:5a:3f:95:83:ec:eb:62:88:21:e4:5a:
                    68:97:1f:07:5d:70:b7:d3:fe:b6:02:7e:2f:7b:bd:
                    99:d3:a4:20:0f:f7:f5:79:87:55:92:46:8d:48:c1:
                    c7:4e:1f:38:e1:e0:a2:e7:5d:d7:6c:44:a9:c1:8d:
                    17:2b
                Exponent: 65537 (0x10001)
        X509v3 extensions:
            X509v3 Basic Constraints: 
                CA:FALSE
            X509v3 Subject Key Identifier: 
                F3:D0:DD:DC:0E:C4:29:BB:40:51:32:A6:26:E7:CC:CA:06:B8:F8:DA
            X509v3 Authority Key Identifier: 
                keyid:E0:0B:5F:DB:17:63:B0:D8:75:84:4B:4C:EC:9B:E3:D6:B5:57:F2:98
                DirName:/CN=server
                serial:47:0C:50:A2:C2:1E:9A:6B:31:A0:66:4C:58:6A:31:C7:C6:AB:1F:52
            X509v3 Extended Key Usage: 
                TLS Web Client Authentication
            X509v3 Key Usage: 
                Digital Signature
    Signature Algorithm: sha256WithRSAEncryption
    Signature Value:
        06:d7:5c:ba:70:af:ef:bd:27:92:19:be:c3:78:dc:5c:01:00:
        6d:f7:1c:1a:71:94:13:b0:88:2c:e0:ed:15:65:a3:09:08:76:
        82:5a:b5:f6:9a:7b:dc:88:ce:03:93:54:2b:cd:22:b2:23:ab:
        7b:09:7a:87:f8:1e:85:9f:9b:d3:9c:13:bc:6a:c3:0e:a0:e5:
        9b:b5:85:bb:4a:47:13:9d:25:0f:7a:dc:d3:06:41:f2:45:86:
        93:cf:8e:f3:42:ce:88:74:92:b8:cd:4c:53:48:18:a3:2c:d1:
        80:86:60:d1:9b:a1:45:bb:74:0c:23:ef:61:63:5e:ac:29:e6:
        34:8c:85:b5:ac:b9:00:49:64:6c:1a:55:a7:58:38:48:a9:a6:
        39:19:7c:33:81:1f:02:b1:fd:99:4c:a2:22:cc:55:d4:20:23:
        a4:67:09:9d:d3:90:67:f7:3f:b2:be:9a:30:df:3f:c9:15:55:
        a8:13:e0:c7:06:79:0b:23:24:83:27:8f:0e:ab:dc:ed:58:1d:
        99:28:37:20:a9:67:3c:d0:c7:6a:60:01:36:90:61:d2:1f:3f:
        d0:95:56:7c:ac:9a:6a:33:3f:f2:be:26:e1:d5:59:21:b2:c6:
        1a:7e:88:69:04:73:6a:6f:16:9b:0a:d7:d5:95:be:00:b6:5d:
        b3:1a:05:3b
-----BEGIN CERTIFICATE-----
MIIDSjCCAjKgAwIBAgIQEzw97boi6Z5/MSiFv4LbYTANBgkqhkiG9w0BAQsFADAR
MQ8wDQYDVQQDDAZzZXJ2ZXIwHhcNMjQwNzMwMDIzMzU4WhcNMjYxMTAyMDIzMzU4
WjARMQ8wDQYDVQQDDAZjbGllbnQwggEiMA0GCSqGSIb3DQEBAQUAA4IBDwAwggEK
AoIBAQCJ6RsdkFqVJWyFRJ2WrNFRTwRfJIAlU6y66HesJDBRwSG9g/DD1fQEDV6Z
f8zFsjkgcl1yfxRTHMfp5G61SbpEshSnofbZzrBfMuioYM6l3Jya6ISz6+i3M7Ee
z5jF+dVyZ60Y/DxpzHq/cnGUV4+PARPKcE3jA///+O3NaILp8Jsl1V4NgcsDQjl1
vHghgSsme5p7AY+1jSTvLY5tkshcoI2mZhyQ+/chxt/EQvp4ixAOS6REY/rzQ2T3
EIyLGIQbX4OmcZRaP5WD7OtiiCHkWmiXHwddcLfT/rYCfi97vZnTpCAP9/V5h1WS
Ro1IwcdOHzjh4KLnXddsRKnBjRcrAgMBAAGjgZ0wgZowCQYDVR0TBAIwADAdBgNV
HQ4EFgQU89Dd3A7EKbtAUTKmJufMyga4+NowTAYDVR0jBEUwQ4AU4Atf2xdjsNh1
hEtM7Jvj1rVX8pihFaQTMBExDzANBgNVBAMMBnNlcnZlcoIURwxQosIemmsxoGZM
WGoxx8arH1IwEwYDVR0lBAwwCgYIKwYBBQUHAwIwCwYDVR0PBAQDAgeAMA0GCSqG
SIb3DQEBCwUAA4IBAQAG11y6cK/vvSeSGb7DeNxcAQBt9xwacZQTsIgs4O0VZaMJ
CHaCWrX2mnvciM4Dk1QrzSKyI6t7CXqH+B6Fn5vTnBO8asMOoOWbtYW7SkcTnSUP
etzTBkHyRYaTz47zQs6IdJK4zUxTSBijLNGAhmDRm6FFu3QMI+9hY16sKeY0jIW1
rLkASWRsGlWnWDhIqaY5GXwzgR8Csf2ZTKIizFXUICOkZwmd05Bn9z+yvpow3z/J
FVWoE+DHBnkLIySDJ48Oq9ztWB2ZKDcgqWc80MdqYAE2kGHSHz/QlVZ8rJpqMz/y
vibh1VkhssYafohpBHNqbxabCtfVlb4Atl2zGgU7
-----END CERTIFICATE-----
